; ModuleID = '60/86.c'
source_filename = "60/86.c"
target datalayout = "e-m:e-p270:32:32-p271:32:32-p272:64:64-i64:64-f80:128-n8:16:32:64-S128"
target triple = "x86_64-pc-linux-gnu"

@.str = private unnamed_addr constant [3 x i8] c"%d\00", align 1
@.str.1 = private unnamed_addr constant [6 x i8] c"empty\00", align 1
@.str.2 = private unnamed_addr constant [7 x i8] c"%d %d\0A\00", align 1

; Function Attrs: noinline nounwind uwtable
define dso_local void @main() #0 {
  %1 = alloca i32, align 4
  %2 = alloca i32, align 4
  %3 = alloca i32, align 4
  %4 = alloca i32, align 4
  %5 = alloca i32, align 4
  %6 = call i32 (i8*, ...) @__isoc99_scanf(i8* getelementptr inbounds ([3 x i8], [3 x i8]* @.str, i64 0, i64 0), i32* %1)
  %7 = load i32, i32* %1, align 4
  %8 = icmp sle i32 %7, 4
  br i1 %8, label %9, label %11

9:                                                ; preds = %0
  %10 = call i32 (i8*, ...) @printf(i8* getelementptr inbounds ([6 x i8], [6 x i8]* @.str.1, i64 0, i64 0))
  br label %78

11:                                               ; preds = %0
  store i32 3, i32* %2, align 4
  br label %12

12:                                               ; preds = %74, %11
  %13 = load i32, i32* %2, align 4
  %14 = load i32, i32* %1, align 4
  %15 = sub nsw i32 %14, 2
  %16 = icmp sle i32 %13, %15
  br i1 %16, label %17, label %77

17:                                               ; preds = %12
  store i32 0, i32* %4, align 4
  store i32 0, i32* %5, align 4
  store i32 3, i32* %3, align 4
  br label %18

18:                                               ; preds = %34, %17
  %19 = load i32, i32* %3, align 4
  %20 = load i32, i32* %2, align 4
  %21 = sdiv i32 %20, 2
  %22 = icmp slt i32 %19, %21
  br i1 %22, label %23, label %37

23:                                               ; preds = %18
  %24 = load i32, i32* %2, align 4
  %25 = load i32, i32* %3, align 4
  %26 = srem i32 %24, %25
  %27 = icmp ne i32 %26, 0
  br i1 %27, label %28, label %31

28:                                               ; preds = %23
  %29 = load i32, i32* %4, align 4
  %30 = add nsw i32 %29, 1
  store i32 %30, i32* %4, align 4
  br label %31

31:                                               ; preds = %28, %23
  %32 = load i32, i32* %5, align 4
  %33 = add nsw i32 %32, 1
  store i32 %33, i32* %5, align 4
  br label %34

34:                                               ; preds = %31
  %35 = load i32, i32* %3, align 4
  %36 = add nsw i32 %35, 1
  store i32 %36, i32* %3, align 4
  br label %18

37:                                               ; preds = %18
  %38 = load i32, i32* %4, align 4
  %39 = load i32, i32* %5, align 4
  %40 = icmp eq i32 %38, %39
  br i1 %40, label %41, label %73

41:                                               ; preds = %37
  store i32 0, i32* %4, align 4
  store i32 0, i32* %5, align 4
  store i32 3, i32* %3, align 4
  br label %42

42:                                               ; preds = %60, %41
  %43 = load i32, i32* %3, align 4
  %44 = load i32, i32* %2, align 4
  %45 = add nsw i32 %44, 2
  %46 = sdiv i32 %45, 2
  %47 = icmp slt i32 %43, %46
  br i1 %47, label %48, label %63

48:                                               ; preds = %42
  %49 = load i32, i32* %2, align 4
  %50 = add nsw i32 %49, 2
  %51 = load i32, i32* %3, align 4
  %52 = srem i32 %50, %51
  %53 = icmp ne i32 %52, 0
  br i1 %53, label %54, label %57

54:                                               ; preds = %48
  %55 = load i32, i32* %4, align 4
  %56 = add nsw i32 %55, 1
  store i32 %56, i32* %4, align 4
  br label %57

57:                                               ; preds = %54, %48
  %58 = load i32, i32* %5, align 4
  %59 = add nsw i32 %58, 1
  store i32 %59, i32* %5, align 4
  br label %60

60:                                               ; preds = %57
  %61 = load i32, i32* %3, align 4
  %62 = add nsw i32 %61, 1
  store i32 %62, i32* %3, align 4
  br label %42

63:                                               ; preds = %42
  %64 = load i32, i32* %4, align 4
  %65 = load i32, i32* %5, align 4
  %66 = icmp eq i32 %64, %65
  br i1 %66, label %67, label %72

67:                                               ; preds = %63
  %68 = load i32, i32* %2, align 4
  %69 = load i32, i32* %2, align 4
  %70 = add nsw i32 %69, 2
  %71 = call i32 (i8*, ...) @printf(i8* getelementptr inbounds ([7 x i8], [7 x i8]* @.str.2, i64 0, i64 0), i32 %68, i32 %70)
  br label %72

72:                                               ; preds = %67, %63
  br label %73

73:                                               ; preds = %72, %37
  br label %74

74:                                               ; preds = %73
  %75 = load i32, i32* %2, align 4
  %76 = add nsw i32 %75, 2
  store i32 %76, i32* %2, align 4
  br label %12

77:                                               ; preds = %12
  br label %78

78:                                               ; preds = %77, %9
  ret void
}

declare dso_local i32 @__isoc99_scanf(i8*, ...) #1

declare dso_local i32 @printf(i8*, ...) #1


!llvm.module.flags = !{!0}
!llvm.ident = !{!1}

!0 = !{i32 1, !"wchar_size", i32 4}
!1 = !{!"clang version 10.0.0-4ubuntu1 "}
